target datalayout = "e-m:e-p270:32:32-p271:32:32-p272:64:64-i64:64-i128:128-f80:128-n8:16:32:64-S128"
target triple = "x86_64-pc-linux-gnu"

%class.TaskTerminator = type { i32, ptr, [128 x i8], i32, [124 x i8], %class.Monitor, ptr }
%class.Monitor = type { %class.Mutex }
%class.Mutex = type { ptr, %class.PlatformMonitor, ptr }
%class.PlatformMonitor = type { %class.PlatformMutex, %union.pthread_cond_t }
%class.PlatformMutex = type { %union.pthread_mutex_t }
%union.pthread_mutex_t = type { %struct.__pthread_mutex_s }
%struct.__pthread_mutex_s = type { i32, i32, i32, i32, i32, i16, i16, %struct.__pthread_internal_list }
%struct.__pthread_internal_list = type { ptr, ptr }
%union.pthread_cond_t = type { %struct.__pthread_cond_s }
%struct.__pthread_cond_s = type { %union.__atomic_wide_counter, %union.__atomic_wide_counter, [2 x i32], [2 x i32], i32, i32, [2 x i32] }
%union.__atomic_wide_counter = type { i64 }

@.str = private unnamed_addr constant [20 x i8] c"TaskTerminator_lock\00", align 1

; Function Attrs: mustprogress nounwind uwtable
define linkonce_odr hidden noundef zeroext i1 @_ZltN5Mutex4RankES0_(i32 noundef %0, i32 noundef %1) #1 comdat {
  %3 = alloca i32, align 4
  %4 = alloca i32, align 4
  store i32 %0, ptr %3, align 4
  store i32 %1, ptr %4, align 4
  %5 = load i32, ptr %3, align 4
  %6 = load i32, ptr %4, align 4
  %7 = icmp slt i32 %5, %6
  ret i1 %7
}

; Function Attrs: mustprogress nounwind uwtable
define linkonce_odr hidden noundef zeroext i1 @_ZgtN5Mutex4RankES0_(i32 noundef %0, i32 noundef %1) #1 comdat {
  %3 = alloca i32, align 4
  %4 = alloca i32, align 4
  store i32 %0, ptr %3, align 4
  store i32 %1, ptr %4, align 4
  %5 = load i32, ptr %4, align 4
  %6 = load i32, ptr %3, align 4
  %7 = call noundef zeroext i1 @_ZltN5Mutex4RankES0_(i32 noundef %5, i32 noundef %6)
  ret i1 %7
}

; Function Attrs: mustprogress nounwind uwtable
define linkonce_odr hidden void @_ZN5MutexC2ENS_4RankEPKc(ptr noundef nonnull align 8 dereferenceable(104) %0, i32 noundef %1, ptr noundef %2) unnamed_addr #1 comdat align 2 {
  %4 = alloca ptr, align 8
  %5 = alloca i32, align 4
  %6 = alloca ptr, align 8
  store ptr %0, ptr %4, align 8
  store i32 %1, ptr %5, align 4
  store ptr %2, ptr %6, align 8
  %7 = load ptr, ptr %4, align 8
  %8 = load i32, ptr %5, align 4
  %9 = load ptr, ptr %6, align 8
  %10 = load i32, ptr %5, align 4
  %11 = call noundef zeroext i1 @_ZgtN5Mutex4RankES0_(i32 noundef %10, i32 noundef 21)
  %12 = select i1 %11, i1 false, i1 true
  call void @_ZN5MutexC2ENS_4RankEPKcb(ptr noundef nonnull align 8 dereferenceable(104) %7, i32 noundef %8, ptr noundef %9, i1 noundef zeroext %12)
  ret void
}

; Function Attrs: mustprogress nounwind uwtable
define linkonce_odr hidden void @_ZN7MonitorC2EN5Mutex4RankEPKc(ptr noundef nonnull align 8 dereferenceable(104) %0, i32 noundef %1, ptr noundef %2) unnamed_addr #1 comdat align 2 {
  %4 = alloca ptr, align 8
  %5 = alloca i32, align 4
  %6 = alloca ptr, align 8
  store ptr %0, ptr %4, align 8
  store i32 %1, ptr %5, align 4
  store ptr %2, ptr %6, align 8
  %7 = load ptr, ptr %4, align 8
  %8 = load i32, ptr %5, align 4
  %9 = load ptr, ptr %6, align 8
  call void @_ZN5MutexC2ENS_4RankEPKc(ptr noundef nonnull align 8 dereferenceable(104) %7, i32 noundef %8, ptr noundef %9)
  ret void
}

; Function Attrs: mustprogress nounwind uwtable
define hidden void @_ZN14TaskTerminatorC2EjP17TaskQueueSetSuper(ptr noundef nonnull align 8 dereferenceable(384) %0, i32 noundef %1, ptr noundef %2) unnamed_addr #1 align 2 {
  %4 = alloca ptr, align 8
  %5 = alloca i32, align 4
  %6 = alloca ptr, align 8
  store ptr %0, ptr %4, align 8
  store i32 %1, ptr %5, align 4
  store ptr %2, ptr %6, align 8
  %7 = load ptr, ptr %4, align 8
  %8 = getelementptr inbounds %class.TaskTerminator, ptr %7, i32 0, i32 0
  %9 = load i32, ptr %5, align 4
  store i32 %9, ptr %8, align 8
  %10 = getelementptr inbounds %class.TaskTerminator, ptr %7, i32 0, i32 1
  %11 = load ptr, ptr %6, align 8
  store ptr %11, ptr %10, align 8
  %12 = getelementptr inbounds %class.TaskTerminator, ptr %7, i32 0, i32 3
  store volatile i32 0, ptr %12, align 8
  %13 = getelementptr inbounds %class.TaskTerminator, ptr %7, i32 0, i32 5
  call void @_ZN7MonitorC2EN5Mutex4RankEPKc(ptr noundef nonnull align 8 dereferenceable(104) %13, i32 noundef 21, ptr noundef @.str)
  %14 = getelementptr inbounds %class.TaskTerminator, ptr %7, i32 0, i32 6
  store ptr null, ptr %14, align 8
  ret void
}