; Function Attrs: mustprogress nounwind uwtable
define hidden void @_ZN14TaskTerminatorC2EjP17TaskQueueSetSuper(ptr noundef nonnull align 8 dereferenceable(384) %0, i32 noundef %1, ptr noundef %2) unnamed_addr #2 align 2 {
  store i32 %1, ptr %0, align 8
  %4 = getelementptr inbounds i8, ptr %0, i64 8
  store ptr %2, ptr %4, align 8
  %5 = getelementptr inbounds i8, ptr %0, i64 144
  store volatile i32 0, ptr %5, align 8
  %6 = getelementptr inbounds i8, ptr %0, i64 272
  tail call void @_ZN5MutexC2ENS_4RankEPKcb(ptr noundef nonnull align 8 dereferenceable(104) %6, i32 noundef 21, ptr noundef nonnull @.str, i1 noundef zeroext true) #8
  %7 = getelementptr inbounds i8, ptr %0, i64 376
  store ptr null, ptr %7, align 8
  ret void
}